target datalayout = "e-m:e-p270:32:32-p271:32:32-p272:64:64-i64:64-i128:128-f80:128-n8:16:32:64-S128"
target triple = "x86_64-pc-linux-gnu"

%struct.Llb_Grp_t_ = type { i32, ptr, ptr, ptr, ptr, ptr, ptr }
%struct.Llb_Man_t_ = type { ptr, ptr, ptr, ptr, ptr, ptr, ptr, ptr, ptr, ptr, ptr, ptr, ptr, ptr, ptr, ptr, ptr }
%struct.Vec_Ptr_t_ = type { i32, i32, ptr }
%struct.Aig_Obj_t_ = type { %union.anon, ptr, ptr, i64, i32, i32, %union.anon.0 }
%union.anon = type { ptr }
%union.anon.0 = type { ptr }
%struct.Aig_Man_t_ = type { ptr, ptr, ptr, ptr, ptr, ptr, ptr, %struct.Aig_Obj_t_, i32, i32, i32, i32, i32, i32, [7 x i32], i32, ptr, i32, ptr, i32, ptr, i32, i32, i32, ptr, i32, i32, i32, i32, i32, ptr, ptr, i32, ptr, ptr, i32, ptr, ptr, i32, i32, i32, ptr, ptr, ptr, ptr, ptr, ptr, ptr, ptr, ptr, ptr, ptr, ptr, ptr, ptr, i32, ptr, ptr, ptr, ptr, i32, i64, i64, i64, ptr, ptr }
%struct.Vec_Int_t_ = type { i32, i32, ptr }

@.str.1 = private unnamed_addr constant [2 x i8] c"\0A\00", align 1
@.str.3 = private unnamed_addr constant [6 x i8] c"%3d :\00", align 1
@.str.4 = private unnamed_addr constant [2 x i8] c" \00", align 1
@.str.5 = private unnamed_addr constant [3 x i8] c"%c\00", align 1

; Function Attrs: nounwind uwtable
define i32 @Llb_ManGroupHasVar(ptr noundef %0, i32 noundef %1, i32 noundef %2) #0 {
  %4 = alloca i32, align 4
  %5 = alloca ptr, align 8
  %6 = alloca i32, align 4
  %7 = alloca i32, align 4
  %8 = alloca ptr, align 8
  %9 = alloca ptr, align 8
  %10 = alloca i32, align 4
  %11 = alloca i32, align 4
  store ptr %0, ptr %5, align 8, !tbaa !3
  store i32 %1, ptr %6, align 4, !tbaa !24
  store i32 %2, ptr %7, align 4, !tbaa !24
  call void @llvm.lifetime.start.p0(i64 8, ptr %8) #8
  %12 = load ptr, ptr %5, align 8, !tbaa !3
  %13 = getelementptr inbounds nuw %struct.Llb_Man_t_, ptr %12, i32 0, i32 8
  %14 = load ptr, ptr %13, align 8, !tbaa !16
  %15 = load i32, ptr %6, align 4, !tbaa !24
  %16 = call ptr @Vec_PtrEntry(ptr noundef %14, i32 noundef %15)
  store ptr %16, ptr %8, align 8, !tbaa !8
  call void @llvm.lifetime.start.p0(i64 8, ptr %9) #8
  call void @llvm.lifetime.start.p0(i64 4, ptr %10) #8
  store i32 0, ptr %10, align 4, !tbaa !24
  br label %17

17:                                               ; preds = %40, %3
  %18 = load i32, ptr %10, align 4, !tbaa !24
  %19 = load ptr, ptr %8, align 8, !tbaa !8
  %20 = getelementptr inbounds nuw %struct.Llb_Grp_t_, ptr %19, i32 0, i32 1
  %21 = load ptr, ptr %20, align 8, !tbaa !14
  %22 = call i32 @Vec_PtrSize(ptr noundef %21)
  %23 = icmp slt i32 %18, %22
  br i1 %23, label %24, label %30

24:                                               ; preds = %17
  %25 = load ptr, ptr %8, align 8, !tbaa !8
  %26 = getelementptr inbounds nuw %struct.Llb_Grp_t_, ptr %25, i32 0, i32 1
  %27 = load ptr, ptr %26, align 8, !tbaa !14
  %28 = load i32, ptr %10, align 4, !tbaa !24
  %29 = call ptr @Vec_PtrEntry(ptr noundef %27, i32 noundef %28)
  store ptr %29, ptr %9, align 8, !tbaa !34
  br label %30

30:                                               ; preds = %24, %17
  %31 = phi i1 [ false, %17 ], [ true, %24 ]
  br i1 %31, label %32, label %43

32:                                               ; preds = %30
  %33 = load ptr, ptr %9, align 8, !tbaa !34
  %34 = getelementptr inbounds nuw %struct.Aig_Obj_t_, ptr %33, i32 0, i32 5
  %35 = load i32, ptr %34, align 4, !tbaa !79
  %36 = load i32, ptr %7, align 4, !tbaa !24
  %37 = icmp eq i32 %35, %36
  br i1 %37, label %38, label %39

38:                                               ; preds = %32
  store i32 1, ptr %4, align 4
  store i32 1, ptr %11, align 4
  br label %71

39:                                               ; preds = %32
  br label %40

40:                                               ; preds = %39
  %41 = load i32, ptr %10, align 4, !tbaa !24
  %42 = add nsw i32 %41, 1
  store i32 %42, ptr %10, align 4, !tbaa !24
  br label %17, !llvm.loop !86

43:                                               ; preds = %30
  store i32 0, ptr %10, align 4, !tbaa !24
  br label %44

44:                                               ; preds = %67, %43
  %45 = load i32, ptr %10, align 4, !tbaa !24
  %46 = load ptr, ptr %8, align 8, !tbaa !8
  %47 = getelementptr inbounds nuw %struct.Llb_Grp_t_, ptr %46, i32 0, i32 2
  %48 = load ptr, ptr %47, align 8, !tbaa !15
  %49 = call i32 @Vec_PtrSize(ptr noundef %48)
  %50 = icmp slt i32 %45, %49
  br i1 %50, label %51, label %57

51:                                               ; preds = %44
  %52 = load ptr, ptr %8, align 8, !tbaa !8
  %53 = getelementptr inbounds nuw %struct.Llb_Grp_t_, ptr %52, i32 0, i32 2
  %54 = load ptr, ptr %53, align 8, !tbaa !15
  %55 = load i32, ptr %10, align 4, !tbaa !24
  %56 = call ptr @Vec_PtrEntry(ptr noundef %54, i32 noundef %55)
  store ptr %56, ptr %9, align 8, !tbaa !34
  br label %57

57:                                               ; preds = %51, %44
  %58 = phi i1 [ false, %44 ], [ true, %51 ]
  br i1 %58, label %59, label %70

59:                                               ; preds = %57
  %60 = load ptr, ptr %9, align 8, !tbaa !34
  %61 = getelementptr inbounds nuw %struct.Aig_Obj_t_, ptr %60, i32 0, i32 5
  %62 = load i32, ptr %61, align 4, !tbaa !79
  %63 = load i32, ptr %7, align 4, !tbaa !24
  %64 = icmp eq i32 %62, %63
  br i1 %64, label %65, label %66

65:                                               ; preds = %59
  store i32 1, ptr %4, align 4
  store i32 1, ptr %11, align 4
  br label %71

66:                                               ; preds = %59
  br label %67

67:                                               ; preds = %66
  %68 = load i32, ptr %10, align 4, !tbaa !24
  %69 = add nsw i32 %68, 1
  store i32 %69, ptr %10, align 4, !tbaa !24
  br label %44, !llvm.loop !87

70:                                               ; preds = %57
  store i32 0, ptr %4, align 4
  store i32 1, ptr %11, align 4
  br label %71

71:                                               ; preds = %70, %65, %38
  call void @llvm.lifetime.end.p0(i64 4, ptr %10) #8
  call void @llvm.lifetime.end.p0(i64 8, ptr %9) #8
  call void @llvm.lifetime.end.p0(i64 8, ptr %8) #8
  %72 = load i32, ptr %4, align 4
  ret i32 %72
}

; Function Attrs: inlinehint nounwind uwtable
define internal i32 @Vec_IntEntry(ptr noundef %0, i32 noundef %1) #3 {
  %3 = alloca ptr, align 8
  %4 = alloca i32, align 4
  store ptr %0, ptr %3, align 8, !tbaa !67
  store i32 %1, ptr %4, align 4, !tbaa !24
  %5 = load ptr, ptr %3, align 8, !tbaa !67
  %6 = getelementptr inbounds nuw %struct.Vec_Int_t_, ptr %5, i32 0, i32 2
  %7 = load ptr, ptr %6, align 8, !tbaa !75
  %8 = load i32, ptr %4, align 4, !tbaa !24
  %9 = sext i32 %8 to i64
  %10 = getelementptr inbounds i32, ptr %7, i64 %9
  %11 = load i32, ptr %10, align 4, !tbaa !24
  ret i32 %11
}

; Function Attrs: inlinehint nounwind uwtable
define internal ptr @Vec_PtrEntry(ptr noundef %0, i32 noundef %1) #3 {
  %3 = alloca ptr, align 8
  %4 = alloca i32, align 4
  store ptr %0, ptr %3, align 8, !tbaa !25
  store i32 %1, ptr %4, align 4, !tbaa !24
  %5 = load ptr, ptr %3, align 8, !tbaa !25
  %6 = getelementptr inbounds nuw %struct.Vec_Ptr_t_, ptr %5, i32 0, i32 2
  %7 = load ptr, ptr %6, align 8, !tbaa !29
  %8 = load i32, ptr %4, align 4, !tbaa !24
  %9 = sext i32 %8 to i64
  %10 = getelementptr inbounds ptr, ptr %7, i64 %9
  %11 = load ptr, ptr %10, align 8, !tbaa !30
  ret ptr %11
}

; Function Attrs: inlinehint nounwind uwtable
define internal i32 @Vec_PtrSize(ptr noundef %0) #3 {
  %2 = alloca ptr, align 8
  store ptr %0, ptr %2, align 8, !tbaa !25
  %3 = load ptr, ptr %2, align 8, !tbaa !25
  %4 = getelementptr inbounds nuw %struct.Vec_Ptr_t_, ptr %3, i32 0, i32 1
  %5 = load i32, ptr %4, align 4, !tbaa !26
  ret i32 %5
}

; Function Attrs: nounwind uwtable
define void @Llb_ManPrintHisto(ptr noundef %0) #0 {
  %2 = alloca ptr, align 8
  %3 = alloca ptr, align 8
  %4 = alloca i32, align 4
  %5 = alloca i32, align 4
  store ptr %0, ptr %2, align 8, !tbaa !3
  call void @llvm.lifetime.start.p0(i64 8, ptr %3) #8
  call void @llvm.lifetime.start.p0(i64 4, ptr %4) #8
  call void @llvm.lifetime.start.p0(i64 4, ptr %5) #8
  store i32 0, ptr %4, align 4, !tbaa !24
  br label %6

6:                                                ; preds = %76, %1
  %7 = load i32, ptr %4, align 4, !tbaa !24
  %8 = load ptr, ptr %2, align 8, !tbaa !3
  %9 = getelementptr inbounds nuw %struct.Llb_Man_t_, ptr %8, i32 0, i32 2
  %10 = load ptr, ptr %9, align 8, !tbaa !49
  %11 = getelementptr inbounds nuw %struct.Aig_Man_t_, ptr %10, i32 0, i32 4
  %12 = load ptr, ptr %11, align 8, !tbaa !74
  %13 = call i32 @Vec_PtrSize(ptr noundef %12)
  %14 = icmp slt i32 %7, %13
  br i1 %14, label %15, label %23

15:                                               ; preds = %6
  %16 = load ptr, ptr %2, align 8, !tbaa !3
  %17 = getelementptr inbounds nuw %struct.Llb_Man_t_, ptr %16, i32 0, i32 2
  %18 = load ptr, ptr %17, align 8, !tbaa !49
  %19 = getelementptr inbounds nuw %struct.Aig_Man_t_, ptr %18, i32 0, i32 4
  %20 = load ptr, ptr %19, align 8, !tbaa !74
  %21 = load i32, ptr %4, align 4, !tbaa !24
  %22 = call ptr @Vec_PtrEntry(ptr noundef %20, i32 noundef %21)
  store ptr %22, ptr %3, align 8, !tbaa !34
  br label %23

23:                                               ; preds = %15, %6
  %24 = phi i1 [ false, %6 ], [ true, %15 ]
  br i1 %24, label %25, label %79

25:                                               ; preds = %23
  %26 = load ptr, ptr %3, align 8, !tbaa !34
  %27 = icmp eq ptr %26, null
  br i1 %27, label %28, label %29

28:                                               ; preds = %25
  br label %75

29:                                               ; preds = %25
  %30 = load ptr, ptr %2, align 8, !tbaa !3
  %31 = getelementptr inbounds nuw %struct.Llb_Man_t_, ptr %30, i32 0, i32 6
  %32 = load ptr, ptr %31, align 8, !tbaa !88
  %33 = load i32, ptr %4, align 4, !tbaa !24
  %34 = call i32 @Vec_IntEntry(ptr noundef %32, i32 noundef %33)
  %35 = icmp slt i32 %34, 0
  br i1 %35, label %36, label %37

36:                                               ; preds = %29
  br label %76

37:                                               ; preds = %29
  %38 = load i32, ptr %4, align 4, !tbaa !24
  %39 = call i32 (ptr, ...) @printf(ptr noundef @.str.3, i32 noundef %38)
  store i32 0, ptr %5, align 4, !tbaa !24
  br label %40

40:                                               ; preds = %50, %37
  %41 = load i32, ptr %5, align 4, !tbaa !24
  %42 = load ptr, ptr %2, align 8, !tbaa !3
  %43 = getelementptr inbounds nuw %struct.Llb_Man_t_, ptr %42, i32 0, i32 11
  %44 = load ptr, ptr %43, align 8, !tbaa !78
  %45 = load i32, ptr %4, align 4, !tbaa !24
  %46 = call i32 @Vec_IntEntry(ptr noundef %44, i32 noundef %45)
  %47 = icmp slt i32 %41, %46
  br i1 %47, label %48, label %53

48:                                               ; preds = %40
  %49 = call i32 (ptr, ...) @printf(ptr noundef @.str.4)
  br label %50

50:                                               ; preds = %48
  %51 = load i32, ptr %5, align 4, !tbaa !24
  %52 = add nsw i32 %51, 1
  store i32 %52, ptr %5, align 4, !tbaa !24
  br label %40, !llvm.loop !89

53:                                               ; preds = %40
  br label %54

54:                                               ; preds = %70, %53
  %55 = load i32, ptr %5, align 4, !tbaa !24
  %56 = load ptr, ptr %2, align 8, !tbaa !3
  %57 = getelementptr inbounds nuw %struct.Llb_Man_t_, ptr %56, i32 0, i32 12
  %58 = load ptr, ptr %57, align 8, !tbaa !82
  %59 = load i32, ptr %4, align 4, !tbaa !24
  %60 = call i32 @Vec_IntEntry(ptr noundef %58, i32 noundef %59)
  %61 = icmp sle i32 %55, %60
  br i1 %61, label %62, label %73

62:                                               ; preds = %54
  %63 = load ptr, ptr %2, align 8, !tbaa !3
  %64 = load i32, ptr %5, align 4, !tbaa !24
  %65 = load i32, ptr %4, align 4, !tbaa !24
  %66 = call i32 @Llb_ManGroupHasVar(ptr noundef %63, i32 noundef %64, i32 noundef %65)
  %67 = icmp ne i32 %66, 0
  %68 = select i1 %67, i32 42, i32 45
  %69 = call i32 (ptr, ...) @printf(ptr noundef @.str.5, i32 noundef %68)
  br label %70

70:                                               ; preds = %62
  %71 = load i32, ptr %5, align 4, !tbaa !24
  %72 = add nsw i32 %71, 1
  store i32 %72, ptr %5, align 4, !tbaa !24
  br label %54, !llvm.loop !90

73:                                               ; preds = %54
  %74 = call i32 (ptr, ...) @printf(ptr noundef @.str.1)
  br label %75

75:                                               ; preds = %73, %28
  br label %76

76:                                               ; preds = %75, %36
  %77 = load i32, ptr %4, align 4, !tbaa !24
  %78 = add nsw i32 %77, 1
  store i32 %78, ptr %4, align 4, !tbaa !24
  br label %6, !llvm.loop !91

79:                                               ; preds = %23
  call void @llvm.lifetime.end.p0(i64 4, ptr %5) #8
  call void @llvm.lifetime.end.p0(i64 4, ptr %4) #8
  call void @llvm.lifetime.end.p0(i64 8, ptr %3) #8
  ret void
}