; Function Attrs: nofree nounwind uwtable
define void @Llb_ManPrintHisto(ptr noundef readonly captures(none) %0) local_unnamed_addr #6 {
  %2 = getelementptr inbounds nuw i8, ptr %0, i64 16
  %3 = load ptr, ptr %2, align 8, !tbaa !42
  %4 = getelementptr inbounds nuw i8, ptr %3, i64 32
  %5 = load ptr, ptr %4, align 8, !tbaa !63
  %6 = getelementptr i8, ptr %5, i64 4
  %.val36 = load i32, ptr %6, align 4, !tbaa !12
  %7 = icmp sgt i32 %.val36, 0
  br i1 %7, label %.lr.ph40, label %.critedge

.lr.ph40:                                         ; preds = %1
  %8 = getelementptr inbounds nuw i8, ptr %0, i64 48
  %9 = getelementptr inbounds nuw i8, ptr %0, i64 88
  %10 = getelementptr inbounds nuw i8, ptr %0, i64 96
  %11 = getelementptr inbounds nuw i8, ptr %0, i64 64
  br label %12

12:                                               ; preds = %.lr.ph40, %79
  %13 = phi ptr [ %3, %.lr.ph40 ], [ %80, %79 ]
  %indvars.iv43 = phi i64 [ 0, %.lr.ph40 ], [ %indvars.iv.next44, %79 ]
  %14 = phi ptr [ %5, %.lr.ph40 ], [ %82, %79 ]
  %15 = getelementptr i8, ptr %14, i64 8
  %.val23 = load ptr, ptr %15, align 8, !tbaa !15
  %16 = getelementptr inbounds nuw ptr, ptr %.val23, i64 %indvars.iv43
  %17 = load ptr, ptr %16, align 8, !tbaa !26
  %18 = icmp eq ptr %17, null
  br i1 %18, label %79, label %19

19:                                               ; preds = %12
  %20 = load ptr, ptr %8, align 8, !tbaa !82
  %21 = getelementptr i8, ptr %20, i64 8
  %.val26 = load ptr, ptr %21, align 8, !tbaa !62
  %22 = getelementptr inbounds nuw i32, ptr %.val26, i64 %indvars.iv43
  %23 = load i32, ptr %22, align 4, !tbaa !65
  %24 = icmp slt i32 %23, 0
  br i1 %24, label %79, label %25

25:                                               ; preds = %19
  %26 = trunc nuw nsw i64 %indvars.iv43 to i32
  %27 = tail call i32 (ptr, ...) @printf(ptr noundef nonnull dereferenceable(1) @.str.3, i32 noundef %26)
  %28 = load ptr, ptr %9, align 8, !tbaa !72
  %29 = getelementptr i8, ptr %28, i64 8
  %.val2530 = load ptr, ptr %29, align 8, !tbaa !62
  %30 = getelementptr inbounds nuw i32, ptr %.val2530, i64 %indvars.iv43
  %31 = load i32, ptr %30, align 4, !tbaa !65
  %32 = icmp sgt i32 %31, 0
  br i1 %32, label %.lr.ph, label %.preheader

.preheader:                                       ; preds = %.lr.ph, %25
  %.0.lcssa = phi i32 [ 0, %25 ], [ %38, %.lr.ph ]
  %33 = load ptr, ptr %10, align 8, !tbaa !76
  %34 = getelementptr i8, ptr %33, i64 8
  %.val2432 = load ptr, ptr %34, align 8, !tbaa !62
  %35 = getelementptr inbounds nuw i32, ptr %.val2432, i64 %indvars.iv43
  %36 = load i32, ptr %35, align 4, !tbaa !65
  %.not33 = icmp sgt i32 %.0.lcssa, %36
  br i1 %.not33, label %._crit_edge, label %.lr.ph35.preheader

.lr.ph35.preheader:                               ; preds = %.preheader
  %37 = zext nneg i32 %.0.lcssa to i64
  br label %.lr.ph35

.lr.ph:                                           ; preds = %25, %.lr.ph
  %.031 = phi i32 [ %38, %.lr.ph ], [ 0, %25 ]
  %putchar22 = tail call i32 @putchar(i32 32)
  %38 = add nuw nsw i32 %.031, 1
  %39 = load ptr, ptr %9, align 8, !tbaa !72
  %40 = getelementptr i8, ptr %39, i64 8
  %.val25 = load ptr, ptr %40, align 8, !tbaa !62
  %41 = getelementptr inbounds nuw i32, ptr %.val25, i64 %indvars.iv43
  %42 = load i32, ptr %41, align 4, !tbaa !65
  %43 = icmp slt i32 %38, %42
  br i1 %43, label %.lr.ph, label %.preheader, !llvm.loop !83

.lr.ph35:                                         ; preds = %.lr.ph35.preheader, %Llb_ManGroupHasVar.exit
  %indvars.iv = phi i64 [ %37, %.lr.ph35.preheader ], [ %indvars.iv.next, %Llb_ManGroupHasVar.exit ]
  %44 = load ptr, ptr %11, align 8, !tbaa !18
  %45 = getelementptr i8, ptr %44, i64 8
  %.val22.i = load ptr, ptr %45, align 8, !tbaa !15
  %46 = getelementptr inbounds nuw ptr, ptr %.val22.i, i64 %indvars.iv
  %47 = load ptr, ptr %46, align 8, !tbaa !26
  %48 = getelementptr inbounds nuw i8, ptr %47, i64 8
  %49 = load ptr, ptr %48, align 8, !tbaa !16
  %50 = getelementptr i8, ptr %49, i64 4
  %.val19.i = load i32, ptr %50, align 4, !tbaa !12
  %51 = icmp sgt i32 %.val19.i, 0
  br i1 %51, label %.lr.ph.i, label %.critedge.preheader.i

.lr.ph.i:                                         ; preds = %.lr.ph35
  %52 = getelementptr i8, ptr %49, i64 8
  %.val21.i = load ptr, ptr %52, align 8, !tbaa !15
  %wide.trip.count.i = zext nneg i32 %.val19.i to i64
  br label %59

53:                                               ; preds = %59
  %indvars.iv.next.i = add nuw nsw i64 %indvars.iv.i, 1
  %exitcond.not.i = icmp eq i64 %indvars.iv.next.i, %wide.trip.count.i
  br i1 %exitcond.not.i, label %.critedge.preheader.i, label %59, !llvm.loop !80

.critedge.preheader.i:                            ; preds = %53, %.lr.ph35
  %54 = getelementptr inbounds nuw i8, ptr %47, i64 16
  %55 = load ptr, ptr %54, align 8, !tbaa !17
  %56 = getelementptr i8, ptr %55, i64 4
  %.val.i = load i32, ptr %56, align 4, !tbaa !12
  %57 = icmp sgt i32 %.val.i, 0
  br i1 %57, label %.lr.ph26.i, label %Llb_ManGroupHasVar.exit

.lr.ph26.i:                                       ; preds = %.critedge.preheader.i
  %58 = getelementptr i8, ptr %55, i64 8
  %.val20.i = load ptr, ptr %58, align 8, !tbaa !15
  %wide.trip.count33.i = zext nneg i32 %.val.i to i64
  br label %66

59:                                               ; preds = %53, %.lr.ph.i
  %indvars.iv.i = phi i64 [ 0, %.lr.ph.i ], [ %indvars.iv.next.i, %53 ]
  %60 = getelementptr inbounds nuw ptr, ptr %.val21.i, i64 %indvars.iv.i
  %61 = load ptr, ptr %60, align 8, !tbaa !26
  %62 = getelementptr inbounds nuw i8, ptr %61, i64 36
  %63 = load i32, ptr %62, align 4, !tbaa !73
  %64 = zext i32 %63 to i64
  %65 = icmp eq i64 %indvars.iv43, %64
  br i1 %65, label %Llb_ManGroupHasVar.exit, label %53

.critedge.i:                                      ; preds = %66
  %indvars.iv.next31.i = add nuw nsw i64 %indvars.iv30.i, 1
  %exitcond34.not.i = icmp eq i64 %indvars.iv.next31.i, %wide.trip.count33.i
  br i1 %exitcond34.not.i, label %Llb_ManGroupHasVar.exit, label %66, !llvm.loop !81

66:                                               ; preds = %.critedge.i, %.lr.ph26.i
  %indvars.iv30.i = phi i64 [ 0, %.lr.ph26.i ], [ %indvars.iv.next31.i, %.critedge.i ]
  %67 = getelementptr inbounds nuw ptr, ptr %.val20.i, i64 %indvars.iv30.i
  %68 = load ptr, ptr %67, align 8, !tbaa !26
  %69 = getelementptr inbounds nuw i8, ptr %68, i64 36
  %70 = load i32, ptr %69, align 4, !tbaa !73
  %71 = zext i32 %70 to i64
  %72 = icmp eq i64 %indvars.iv43, %71
  br i1 %72, label %Llb_ManGroupHasVar.exit, label %.critedge.i

Llb_ManGroupHasVar.exit:                          ; preds = %59, %.critedge.i, %66, %.critedge.preheader.i
  %73 = phi i32 [ 45, %.critedge.preheader.i ], [ 45, %.critedge.i ], [ 42, %66 ], [ 42, %59 ]
  %putchar21 = tail call i32 @putchar(i32 %73)
  %indvars.iv.next = add nuw nsw i64 %indvars.iv, 1
  %74 = load ptr, ptr %10, align 8, !tbaa !76
  %75 = getelementptr i8, ptr %74, i64 8
  %.val24 = load ptr, ptr %75, align 8, !tbaa !62
  %76 = getelementptr inbounds nuw i32, ptr %.val24, i64 %indvars.iv43
  %77 = load i32, ptr %76, align 4, !tbaa !65
  %78 = sext i32 %77 to i64
  %.not.not = icmp slt i64 %indvars.iv, %78
  br i1 %.not.not, label %.lr.ph35, label %._crit_edge, !llvm.loop !84

._crit_edge:                                      ; preds = %Llb_ManGroupHasVar.exit, %.preheader
  %putchar = tail call i32 @putchar(i32 10)
  %.pre = load ptr, ptr %2, align 8, !tbaa !42
  br label %79

79:                                               ; preds = %._crit_edge, %12, %19
  %80 = phi ptr [ %.pre, %._crit_edge ], [ %13, %12 ], [ %13, %19 ]
  %indvars.iv.next44 = add nuw nsw i64 %indvars.iv43, 1
  %81 = getelementptr inbounds nuw i8, ptr %80, i64 32
  %82 = load ptr, ptr %81, align 8, !tbaa !63
  %83 = getelementptr i8, ptr %82, i64 4
  %.val = load i32, ptr %83, align 4, !tbaa !12
  %84 = sext i32 %.val to i64
  %85 = icmp slt i64 %indvars.iv.next44, %84
  br i1 %85, label %12, label %.critedge, !llvm.loop !85

.critedge:                                        ; preds = %79, %1
  ret void
}